; Function Attrs: nounwind uwtable
define dso_local range(i64 0, 2) i64 @multirange_contains_range(ptr noundef readonly captures(none) %0) local_unnamed_addr #0 {
  %2 = getelementptr inbounds nuw i8, ptr %0, i64 32
  %3 = load i64, ptr %2, align 8
  %4 = inttoptr i64 %3 to ptr
  %5 = tail call ptr @pg_detoast_datum(ptr noundef %4) #11
  %6 = getelementptr inbounds nuw i8, ptr %0, i64 48
  %7 = load i64, ptr %6, align 8
  %8 = inttoptr i64 %7 to ptr
  %9 = tail call ptr @pg_detoast_datum(ptr noundef %8) #11
  %10 = getelementptr inbounds nuw i8, ptr %5, i64 4
  %11 = load i32, ptr %10, align 4
  %12 = load ptr, ptr %0, align 8
  %13 = getelementptr inbounds nuw i8, ptr %12, i64 24
  %14 = load ptr, ptr %13, align 8
  %15 = icmp eq ptr %14, null
  br i1 %15, label %18, label %16

16:                                               ; preds = %1
  %17 = load i32, ptr %14, align 8
  %.not.i = icmp eq i32 %17, %11
  br i1 %.not.i, label %multirange_get_typcache.exit, label %18

18:                                               ; preds = %16, %1
  %19 = tail call ptr @lookup_type_cache(i32 noundef %11, i32 noundef 65536) #11
  %20 = getelementptr inbounds nuw i8, ptr %19, i64 440
  %21 = load ptr, ptr %20, align 8
  %22 = icmp eq ptr %21, null
  br i1 %22, label %23, label %26

23:                                               ; preds = %18
  %24 = tail call zeroext i1 @errstart_cold(i32 noundef 21, ptr noundef null) #13
  tail call void @llvm.assume(i1 %24)
  %25 = tail call i32 (ptr, ...) @errmsg_internal(ptr noundef nonnull @.str.9, i32 noundef %11) #11
  tail call void @errfinish(ptr noundef nonnull @.str.2, i32 noundef 557, ptr noundef nonnull @__func__.multirange_get_typcache) #11
  unreachable

26:                                               ; preds = %18
  %27 = load ptr, ptr %0, align 8
  %28 = getelementptr inbounds nuw i8, ptr %27, i64 24
  store ptr %19, ptr %28, align 8
  br label %multirange_get_typcache.exit

multirange_get_typcache.exit:                     ; preds = %16, %26
  %.0.i = phi ptr [ %19, %26 ], [ %14, %16 ]
  %29 = getelementptr inbounds nuw i8, ptr %.0.i, i64 440
  %30 = load ptr, ptr %29, align 8
  %31 = tail call zeroext i1 @multirange_contains_range_internal(ptr noundef %30, ptr noundef nonnull %5, ptr noundef %9)
  %32 = zext i1 %31 to i64
  ret i64 %32
}